(dp0
VManchester
p1
(F53.479324
F-2.2484851
tp2
sVPortsmouth
p3
(F50.816667
F-1.083333
tp4
sVS Shields
p5
(F54.999424
F-1.427406
tp6
sVOldham
p7
(F53.5445459
F-2.118732
tp8
sVNortmpton
p9
(F52.240477
F-0.9026560000000001
tp10
sVSt Helens
p11
(F53.456307
F-2.737095
tp12
sVWolverhampton
p13
(F52.586973
F-2.12882
tp14
sVWarrington
p15
(F53.3900441
F-2.5969501
tp16
sVTeignmouth
p17
(F50.54703300000001
F-3.496688
tp18
sVIpswich
p19
(F52.056736
F1.14822
tp20
sVHuddersfield
p21
(F53.645792
F-1.785035
tp22
sVKings Lynn
p23
(F52.75649
F0.4001739
tp24
sVLiverpool
p25
(F53.4083714
F-2.9915726
tp26
sVSwansea
p27
(F51.62144
F-3.943645999999999
tp28
sVNorwich
p29
(F52.6308859
F1.297355
tp30
sVHull
p31
(F53.7456709
F-0.3367413
tp32
sVSunderland
p33
(F54.906869
F-1.383801
tp34
sVSalford
p35
(F53.488465
F-2.2982969
tp36
sVNottingham
p37
(F52.95478319999999
F-1.1581086
tp38
sVLeeds
p39
(F53.8007554
F-1.5490774
tp40
sVYork
p41
(F53.95996510000001
F-1.0872979
tp42
sVNewcastle
p43
(F54.978252
F-1.61778
tp44
sVMacclesfield
p45
(F53.258663
F-2.119287
tp46
sVLondon
p47
(F51.5073509
F-0.1277583
tp48
sVColchester
p49
(F51.895927
F0.8918740000000001
tp50
sVBrighton
p51
(F50.82253000000001
F-0.137163
tp52
sVBradford
p53
(F53.795984
F-1.759398
tp54
sVSouthampton
p55
(F50.90970040000001
F-1.4043509
tp56
sVReading
p57
(F51.4542645
F-0.9781303
tp58
sVLuton
p59
(F51.8786707
F-0.4200255
tp60
sVBlackburn
p61
(F53.748575
F-2.487529
tp62
sVCoventry
p63
(F52.406822
F-1.519693
tp64
sVWakefield
p65
(F53.683298
F-1.505924
tp66
sVBirkenhead
p67
(F53.38999099999999
F-3.023009
tp68
sVOxford
p69
(F51.7520209
F-1.2577263
tp70
sVPlymouth
p71
(F50.3754565
F-4.1426565
tp72
sVGateshead
p73
(F54.95268
F-1.603411
tp74
sVNewport
p75
(F51.584151
F-2.997664
tp76
sVChester
p77
(F53.193392
F-2.893075
tp78
sVBristol
p79
(F51.454513
F-2.58791
tp80
sVDerby
p81
(F52.9225301
F-1.4746186
tp82
sVStockport
p83
(F53.406754
F-2.158843
tp84
sVBournemouth
p85
(F50.719164
F-1.880769
tp86
sVBolton
p87
(F53.584441
F-2.428619
tp88
sVSouthend
p89
(F51.5459269
F0.7077123
tp90
sVGreat Yarmouth
p91
(F52.598233
F1.728047
tp92
sVExeter
p93
(F50.718412
F-3.533899
tp94
sVWallasey
p95
(F53.426521
F-3.066215
tp96
sVCambridge
p97
(F52.205337
F0.121817
tp98
sVLeicester
p99
(F52.6368778
F-1.1397592
tp100
sVPreston
p101
(F53.763201
F-2.70309
tp102
sVWalsall
p103
(F52.586214
F-1.982919
tp104
sVBath
p105
(F51.375801
F-2.3599039
tp106
sVStoke
p107
(F53.002668
F-2.179404
tp108
sVBlackpool
p109
(F53.8175053
F-3.0356748
tp110
sVWigan
p111
(F53.54544
F-2.637474
tp112
sVBirmingham
p113
(F52.48624299999999
F-1.890401
tp114
sVShrewsbury
p115
(F52.70730289999999
F-2.7553268
tp116
sVSheffield
p117
(F53.38112899999999
F-1.470085
tp118
sVCardiff
p119
(F51.48158100000001
F-3.17909
tp120
s.